target datalayout = "e-m:e-p270:32:32-p271:32:32-p272:64:64-i64:64-i128:128-f80:128-n8:16:32:64-S128"
target triple = "x86_64-pc-linux-gnu"

%"class.Luau::AstNode.base" = type <{ ptr, i32, %"struct.Luau::Location" }>
%"struct.Luau::Location" = type { %"struct.Luau::Position", %"struct.Luau::Position" }
%"struct.Luau::Position" = type { i32, i32 }
%"class.Luau::AstExpr.base" = type { %"class.Luau::AstNode.base" }
%"struct.Luau::AstArray.304" = type { ptr, i64 }
%"class.Luau::AstExprInterpString" = type { %"class.Luau::AstExpr.base", %"struct.Luau::AstArray.660", %"struct.Luau::AstArray.304" }
%"struct.Luau::AstArray.660" = type { ptr, i64 }

; Function Attrs: mustprogress nounwind uwtable
define linkonce_odr dso_local noundef ptr @_ZNK4Luau8AstArrayIPNS_7AstExprEE3endEv(ptr noundef nonnull align 8 dereferenceable(16) %0) #2 comdat align 2 {
  %2 = alloca ptr, align 8
  store ptr %0, ptr %2, align 8, !tbaa !671
  %3 = load ptr, ptr %2, align 8
  %4 = getelementptr inbounds nuw %"struct.Luau::AstArray.304", ptr %3, i32 0, i32 0
  %5 = load ptr, ptr %4, align 8, !tbaa !591
  %6 = getelementptr inbounds nuw %"struct.Luau::AstArray.304", ptr %3, i32 0, i32 1
  %7 = load i64, ptr %6, align 8, !tbaa !590
  %8 = getelementptr inbounds nuw ptr, ptr %5, i64 %7
  ret ptr %8
}

; Function Attrs: mustprogress nounwind uwtable
define linkonce_odr dso_local noundef ptr @_ZNK4Luau8AstArrayIPNS_7AstExprEE5beginEv(ptr noundef nonnull align 8 dereferenceable(16) %0) #2 comdat align 2 {
  %2 = alloca ptr, align 8
  store ptr %0, ptr %2, align 8, !tbaa !671
  %3 = load ptr, ptr %2, align 8
  %4 = getelementptr inbounds nuw %"struct.Luau::AstArray.304", ptr %3, i32 0, i32 0
  %5 = load ptr, ptr %4, align 8, !tbaa !591
  ret ptr %5
}

; Function Attrs: mustprogress uwtable
define dso_local void @_ZN4Luau12TypeChecker25visitEPNS_19AstExprInterpStringE(ptr noundef nonnull align 8 dereferenceable(784) %0, ptr noundef %1) #7 align 2 {
  %3 = alloca ptr, align 8
  %4 = alloca ptr, align 8
  %5 = alloca ptr, align 8
  %6 = alloca ptr, align 8
  %7 = alloca ptr, align 8
  %8 = alloca ptr, align 8
  store ptr %0, ptr %3, align 8, !tbaa !131
  store ptr %1, ptr %4, align 8, !tbaa !796
  %9 = load ptr, ptr %3, align 8
  call void @llvm.lifetime.start.p0(i64 8, ptr %5) #4
  %10 = load ptr, ptr %4, align 8, !tbaa !796
  %11 = getelementptr inbounds nuw %"class.Luau::AstExprInterpString", ptr %10, i32 0, i32 2
  store ptr %11, ptr %5, align 8, !tbaa !671
  call void @llvm.lifetime.start.p0(i64 8, ptr %6) #4
  %12 = load ptr, ptr %5, align 8, !tbaa !671
  %13 = call noundef ptr @_ZNK4Luau8AstArrayIPNS_7AstExprEE5beginEv(ptr noundef nonnull align 8 dereferenceable(16) %12)
  store ptr %13, ptr %6, align 8, !tbaa !535
  call void @llvm.lifetime.start.p0(i64 8, ptr %7) #4
  %14 = load ptr, ptr %5, align 8, !tbaa !671
  %15 = call noundef ptr @_ZNK4Luau8AstArrayIPNS_7AstExprEE3endEv(ptr noundef nonnull align 8 dereferenceable(16) %14)
  store ptr %15, ptr %7, align 8, !tbaa !535
  br label %16

16:                                               ; preds = %25, %2
  %17 = load ptr, ptr %6, align 8, !tbaa !535
  %18 = load ptr, ptr %7, align 8, !tbaa !535
  %19 = icmp ne ptr %17, %18
  br i1 %19, label %21, label %20

20:                                               ; preds = %16
  call void @llvm.lifetime.end.p0(i64 8, ptr %7) #4
  call void @llvm.lifetime.end.p0(i64 8, ptr %6) #4
  call void @llvm.lifetime.end.p0(i64 8, ptr %5) #4
  br label %28

21:                                               ; preds = %16
  call void @llvm.lifetime.start.p0(i64 8, ptr %8) #4
  %22 = load ptr, ptr %6, align 8, !tbaa !535
  %23 = load ptr, ptr %22, align 8, !tbaa !312
  store ptr %23, ptr %8, align 8, !tbaa !312
  %24 = load ptr, ptr %8, align 8, !tbaa !312
  call void @_ZN4Luau12TypeChecker25visitEPNS_7AstExprENS_12ValueContextE(ptr noundef nonnull align 8 dereferenceable(784) %9, ptr noundef %24, i32 noundef 1)
  call void @llvm.lifetime.end.p0(i64 8, ptr %8) #4
  br label %25

25:                                               ; preds = %21
  %26 = load ptr, ptr %6, align 8, !tbaa !535
  %27 = getelementptr inbounds nuw ptr, ptr %26, i32 1
  store ptr %27, ptr %6, align 8, !tbaa !535
  br label %16

28:                                               ; preds = %20
  ret void
}